target datalayout = "e-m:e-p270:32:32-p271:32:32-p272:64:64-i64:64-i128:128-f80:128-n8:16:32:64-S128"
target triple = "x86_64-pc-linux-gnu"

%struct.MvcCubeStruct = type { ptr, i32, i32, [1 x i32] }
%struct.MvcCoverStruct = type { i32, i32, i32, %struct.MvcListStruct, ptr, i32, ptr, ptr, ptr }
%struct.MvcListStruct = type { ptr, ptr, i32 }

; Function Attrs: nounwind uwtable
define i32 @Mvc_CoverSupportSizeBinary(ptr noundef %0) #0 {
  %2 = alloca ptr, align 8
  %3 = alloca ptr, align 8
  %4 = alloca i32, align 4
  %5 = alloca i32, align 4
  %6 = alloca i32, align 4
  %7 = alloca i32, align 4
  store ptr %0, ptr %2, align 8, !tbaa !3
  call void @llvm.lifetime.start.p0(i64 8, ptr %3) #3
  call void @llvm.lifetime.start.p0(i64 4, ptr %4) #3
  call void @llvm.lifetime.start.p0(i64 4, ptr %5) #3
  call void @llvm.lifetime.start.p0(i64 4, ptr %6) #3
  call void @llvm.lifetime.start.p0(i64 4, ptr %7) #3
  %8 = load ptr, ptr %2, align 8, !tbaa !3
  %9 = call ptr @Mvc_CubeAlloc(ptr noundef %8)
  store ptr %9, ptr %3, align 8, !tbaa !8
  %10 = load ptr, ptr %2, align 8, !tbaa !3
  %11 = load ptr, ptr %3, align 8, !tbaa !8
  call void @Mvc_CoverSupportAnd(ptr noundef %10, ptr noundef %11)
  %12 = load ptr, ptr %2, align 8, !tbaa !3
  %13 = getelementptr inbounds nuw %struct.MvcCoverStruct, ptr %12, i32 0, i32 2
  %14 = load i32, ptr %13, align 8, !tbaa !27
  %15 = sdiv i32 %14, 2
  store i32 %15, ptr %4, align 4, !tbaa !10
  store i32 0, ptr %5, align 4, !tbaa !10
  br label %16

16:                                               ; preds = %65, %1
  %17 = load i32, ptr %5, align 4, !tbaa !10
  %18 = load ptr, ptr %2, align 8, !tbaa !3
  %19 = getelementptr inbounds nuw %struct.MvcCoverStruct, ptr %18, i32 0, i32 2
  %20 = load i32, ptr %19, align 8, !tbaa !27
  %21 = sdiv i32 %20, 2
  %22 = icmp slt i32 %17, %21
  br i1 %22, label %23, label %68

23:                                               ; preds = %16
  %24 = load ptr, ptr %3, align 8, !tbaa !8
  %25 = getelementptr inbounds nuw %struct.MvcCubeStruct, ptr %24, i32 0, i32 3
  %26 = load i32, ptr %5, align 4, !tbaa !10
  %27 = mul nsw i32 2, %26
  %28 = ashr i32 %27, 5
  %29 = sext i32 %28 to i64
  %30 = getelementptr inbounds [1 x i32], ptr %25, i64 0, i64 %29
  %31 = load i32, ptr %30, align 4, !tbaa !10
  %32 = load i32, ptr %5, align 4, !tbaa !10
  %33 = mul nsw i32 2, %32
  %34 = and i32 %33, 31
  %35 = shl i32 1, %34
  %36 = and i32 %31, %35
  %37 = icmp ugt i32 %36, 0
  %38 = zext i1 %37 to i32
  store i32 %38, ptr %6, align 4, !tbaa !10
  %39 = load ptr, ptr %3, align 8, !tbaa !8
  %40 = getelementptr inbounds nuw %struct.MvcCubeStruct, ptr %39, i32 0, i32 3
  %41 = load i32, ptr %5, align 4, !tbaa !10
  %42 = mul nsw i32 2, %41
  %43 = add nsw i32 %42, 1
  %44 = ashr i32 %43, 5
  %45 = sext i32 %44 to i64
  %46 = getelementptr inbounds [1 x i32], ptr %40, i64 0, i64 %45
  %47 = load i32, ptr %46, align 4, !tbaa !10
  %48 = load i32, ptr %5, align 4, !tbaa !10
  %49 = mul nsw i32 2, %48
  %50 = add nsw i32 %49, 1
  %51 = and i32 %50, 31
  %52 = shl i32 1, %51
  %53 = and i32 %47, %52
  %54 = icmp ugt i32 %53, 0
  %55 = zext i1 %54 to i32
  store i32 %55, ptr %7, align 4, !tbaa !10
  %56 = load i32, ptr %6, align 4, !tbaa !10
  %57 = icmp ne i32 %56, 0
  br i1 %57, label %58, label %64

58:                                               ; preds = %23
  %59 = load i32, ptr %7, align 4, !tbaa !10
  %60 = icmp ne i32 %59, 0
  br i1 %60, label %61, label %64

61:                                               ; preds = %58
  %62 = load i32, ptr %4, align 4, !tbaa !10
  %63 = add nsw i32 %62, -1
  store i32 %63, ptr %4, align 4, !tbaa !10
  br label %64

64:                                               ; preds = %61, %58, %23
  br label %65

65:                                               ; preds = %64
  %66 = load i32, ptr %5, align 4, !tbaa !10
  %67 = add nsw i32 %66, 1
  store i32 %67, ptr %5, align 4, !tbaa !10
  br label %16, !llvm.loop !28

68:                                               ; preds = %16
  %69 = load ptr, ptr %2, align 8, !tbaa !3
  %70 = load ptr, ptr %3, align 8, !tbaa !8
  call void @Mvc_CubeFree(ptr noundef %69, ptr noundef %70)
  %71 = load i32, ptr %4, align 4, !tbaa !10
  call void @llvm.lifetime.end.p0(i64 4, ptr %7) #3
  call void @llvm.lifetime.end.p0(i64 4, ptr %6) #3
  call void @llvm.lifetime.end.p0(i64 4, ptr %5) #3
  call void @llvm.lifetime.end.p0(i64 4, ptr %4) #3
  call void @llvm.lifetime.end.p0(i64 8, ptr %3) #3
  ret i32 %71
}