; Function Attrs: nounwind uwtable
define i32 @Mvc_CoverSupportSizeBinary(ptr noundef %0) local_unnamed_addr #1 {
  %2 = tail call ptr @Mvc_CubeAlloc(ptr noundef %0) #6
  tail call void @Mvc_CoverSupportAnd(ptr noundef %0, ptr noundef %2)
  %3 = getelementptr inbounds nuw i8, ptr %0, i64 8
  %4 = load i32, ptr %3, align 8, !tbaa !15
  %5 = sdiv i32 %4, 2
  %6 = icmp sgt i32 %4, 1
  br i1 %6, label %.lr.ph, label %._crit_edge

.lr.ph:                                           ; preds = %1
  %7 = getelementptr inbounds nuw i8, ptr %2, i64 16
  br label %8

8:                                                ; preds = %.lr.ph, %8
  %.021 = phi i32 [ %5, %.lr.ph ], [ %spec.select, %8 ]
  %.01920 = phi i32 [ 0, %.lr.ph ], [ %21, %8 ]
  %9 = shl nuw nsw i32 %.01920, 1
  %10 = lshr i32 %.01920, 4
  %11 = zext nneg i32 %10 to i64
  %12 = getelementptr inbounds nuw [1 x i32], ptr %7, i64 0, i64 %11
  %13 = load i32, ptr %12, align 4, !tbaa !3
  %14 = and i32 %9, 30
  %15 = shl nuw nsw i32 1, %14
  %16 = shl nuw i32 2, %14
  %17 = freeze i32 %16
  %18 = or i32 %17, %15
  %19 = and i32 %13, %18
  %or.cond = icmp eq i32 %19, %18
  %20 = sext i1 %or.cond to i32
  %spec.select = add nsw i32 %.021, %20
  %21 = add nuw nsw i32 %.01920, 1
  %exitcond.not = icmp eq i32 %21, %5
  br i1 %exitcond.not, label %._crit_edge, label %8, !llvm.loop !21

._crit_edge:                                      ; preds = %8, %1
  %.0.lcssa = phi i32 [ %5, %1 ], [ %spec.select, %8 ]
  tail call void @Mvc_CubeFree(ptr noundef %0, ptr noundef %2) #6
  ret i32 %.0.lcssa
}